; Function Attrs: nounwind uwtable
define void @RTreeLeafListFree(ptr noundef captures(none) %0) local_unnamed_addr #3 {
  %2 = load ptr, ptr %0, align 8, !tbaa !10
  %.not6 = icmp eq ptr %2, null
  br i1 %.not6, label %._crit_edge, label %.lr.ph

.lr.ph:                                           ; preds = %1, %.lr.ph
  %3 = phi ptr [ %4, %.lr.ph ], [ %2, %1 ]
  %.07 = phi ptr [ %3, %.lr.ph ], [ %0, %1 ]
  tail call void @free(ptr noundef nonnull %.07) #8
  %4 = load ptr, ptr %3, align 8, !tbaa !10
  %.not = icmp eq ptr %4, null
  br i1 %.not, label %._crit_edge, label %.lr.ph, !llvm.loop !11

._crit_edge:                                      ; preds = %.lr.ph, %1
  %.0.lcssa = phi ptr [ %0, %1 ], [ %3, %.lr.ph ]
  tail call void @free(ptr noundef nonnull %.0.lcssa) #8
  ret void
}